target datalayout = "e-m:e-p270:32:32-p271:32:32-p272:64:64-i64:64-i128:128-f80:128-n8:16:32:64-S128"
target triple = "x86_64-pc-linux-gnu"

%"class.rocksdb::cassandra::ColumnBase" = type <{ ptr, i8, i8, [6 x i8] }>
%"class.rocksdb::cassandra::Column" = type { %"class.rocksdb::cassandra::ColumnBase.base", i64, i32, ptr }
%"class.rocksdb::cassandra::ColumnBase.base" = type <{ ptr, i8, i8 }>

; Function Attrs: mustprogress nounwind uwtable
define void @_ZN7rocksdb9cassandra10ColumnBaseC2Eaa(ptr noundef nonnull align 8 dereferenceable(10) %0, i8 noundef signext %1, i8 noundef signext %2) unnamed_addr #0 align 2 {
  %4 = alloca ptr, align 8
  %5 = alloca i8, align 1
  %6 = alloca i8, align 1
  store ptr %0, ptr %4, align 8, !tbaa !4
  store i8 %1, ptr %5, align 1, !tbaa !9
  store i8 %2, ptr %6, align 1, !tbaa !9
  %7 = load ptr, ptr %4, align 8
  store ptr getelementptr inbounds inrange(-16, 56) ({ [9 x ptr] }, ptr @_ZTVN7rocksdb9cassandra10ColumnBaseE, i32 0, i32 0, i32 2), ptr %7, align 8, !tbaa !10
  %8 = getelementptr inbounds nuw %"class.rocksdb::cassandra::ColumnBase", ptr %7, i32 0, i32 1
  %9 = load i8, ptr %5, align 1, !tbaa !9
  store i8 %9, ptr %8, align 8, !tbaa !12
  %10 = getelementptr inbounds nuw %"class.rocksdb::cassandra::ColumnBase", ptr %7, i32 0, i32 2
  %11 = load i8, ptr %6, align 1, !tbaa !9
  store i8 %11, ptr %10, align 1, !tbaa !14
  ret void
}

; Function Attrs: mustprogress nounwind uwtable
define void @_ZN7rocksdb9cassandra6ColumnC2EaaliPKc(ptr noundef nonnull align 8 dereferenceable(40) %0, i8 noundef signext %1, i8 noundef signext %2, i64 noundef %3, i32 noundef %4, ptr noundef %5) unnamed_addr #0 align 2 {
  %7 = alloca ptr, align 8
  %8 = alloca i8, align 1
  %9 = alloca i8, align 1
  %10 = alloca i64, align 8
  %11 = alloca i32, align 4
  %12 = alloca ptr, align 8
  store ptr %0, ptr %7, align 8, !tbaa !37
  store i8 %1, ptr %8, align 1, !tbaa !9
  store i8 %2, ptr %9, align 1, !tbaa !9
  store i64 %3, ptr %10, align 8, !tbaa !19
  store i32 %4, ptr %11, align 4, !tbaa !21
  store ptr %5, ptr %12, align 8, !tbaa !17
  %13 = load ptr, ptr %7, align 8
  %14 = load i8, ptr %8, align 1, !tbaa !9
  %15 = load i8, ptr %9, align 1, !tbaa !9
  call void @_ZN7rocksdb9cassandra10ColumnBaseC2Eaa(ptr noundef nonnull align 8 dereferenceable(10) %13, i8 noundef signext %14, i8 noundef signext %15)
  store ptr getelementptr inbounds inrange(-16, 56) ({ [9 x ptr] }, ptr @_ZTVN7rocksdb9cassandra6ColumnE, i32 0, i32 0, i32 2), ptr %13, align 8, !tbaa !10
  %16 = getelementptr inbounds nuw %"class.rocksdb::cassandra::Column", ptr %13, i32 0, i32 1
  %17 = load i64, ptr %10, align 8, !tbaa !19
  store i64 %17, ptr %16, align 8, !tbaa !39
  %18 = getelementptr inbounds nuw %"class.rocksdb::cassandra::Column", ptr %13, i32 0, i32 2
  %19 = load i32, ptr %11, align 4, !tbaa !21
  store i32 %19, ptr %18, align 8, !tbaa !41
  %20 = getelementptr inbounds nuw %"class.rocksdb::cassandra::Column", ptr %13, i32 0, i32 3
  %21 = load ptr, ptr %12, align 8, !tbaa !17
  store ptr %21, ptr %20, align 8, !tbaa !42
  ret void
}