; Function Attrs: mustprogress nofree norecurse nosync nounwind willreturn memory(argmem: write) uwtable
define void @_ZN7rocksdb9cassandra6ColumnC2EaaliPKc(ptr noundef nonnull writeonly align 8 captures(none) dereferenceable(40) initializes((0, 10), (16, 28), (32, 40)) %0, i8 noundef signext %1, i8 noundef signext %2, i64 noundef %3, i32 noundef %4, ptr noundef %5) unnamed_addr #0 align 2 {
  %7 = getelementptr inbounds nuw i8, ptr %0, i64 8
  store i8 %1, ptr %7, align 8, !tbaa !7
  %8 = getelementptr inbounds nuw i8, ptr %0, i64 9
  store i8 %2, ptr %8, align 1, !tbaa !10
  store ptr getelementptr inbounds nuw inrange(-16, 56) (i8, ptr @_ZTVN7rocksdb9cassandra6ColumnE, i64 16), ptr %0, align 8, !tbaa !4
  %9 = getelementptr inbounds nuw i8, ptr %0, i64 16
  store i64 %3, ptr %9, align 8, !tbaa !73
  %10 = getelementptr inbounds nuw i8, ptr %0, i64 24
  store i32 %4, ptr %10, align 8, !tbaa !75
  %11 = getelementptr inbounds nuw i8, ptr %0, i64 32
  store ptr %5, ptr %11, align 8, !tbaa !76
  ret void
}